target datalayout = "e-m:e-p270:32:32-p271:32:32-p272:64:64-i64:64-i128:128-f80:128-n8:16:32:64-S128"
target triple = "x86_64-unknown-linux-gnu"

%"class.absl::Condition" = type { [16 x i8], ptr, ptr }

; Function Attrs: mustprogress nounwind uwtable
define internal void @_ZNK4absl9Condition12ReadCallbackIPFbPKN12_GLOBAL__N_14BaseEEEEvPT_(ptr noundef nonnull align 8 dereferenceable(32) %this, ptr noundef %callback) #7 align 2 {
entry:
  %this.addr = alloca ptr, align 8
  %callback.addr = alloca ptr, align 8
  store ptr %this, ptr %this.addr, align 8
  store ptr %callback, ptr %callback.addr, align 8
  %this1 = load ptr, ptr %this.addr, align 8
  %0 = load ptr, ptr %callback.addr, align 8
  %callback_ = getelementptr inbounds %"class.absl::Condition", ptr %this1, i32 0, i32 0
  %arraydecay = getelementptr inbounds [16 x i8], ptr %callback_, i64 0, i64 0
  call void @llvm.memcpy.p0.p0.i64(ptr align 8 %0, ptr align 8 %arraydecay, i64 8, i1 false)
  ret void
}

; Function Attrs: mustprogress uwtable
define internal noundef zeroext i1 @_ZN4absl9Condition19CastAndCallFunctionIKN12_GLOBAL__N_14BaseEEEbPKS0_(ptr noundef %c) #4 align 2 {
entry:
  %c.addr = alloca ptr, align 8
  %function = alloca ptr, align 8
  %argument = alloca ptr, align 8
  store ptr %c, ptr %c.addr, align 8
  %0 = load ptr, ptr %c.addr, align 8
  call void @_ZNK4absl9Condition12ReadCallbackIPFbPKN12_GLOBAL__N_14BaseEEEEvPT_(ptr noundef nonnull align 8 dereferenceable(32) %0, ptr noundef %function)
  %1 = load ptr, ptr %c.addr, align 8
  %arg_ = getelementptr inbounds %"class.absl::Condition", ptr %1, i32 0, i32 2
  %2 = load ptr, ptr %arg_, align 8
  store ptr %2, ptr %argument, align 8
  %3 = load ptr, ptr %function, align 8
  %4 = load ptr, ptr %argument, align 8
  %call = call noundef zeroext i1 %3(ptr noundef %4)
  ret i1 %call
}