; Function Attrs: mustprogress uwtable
define internal noundef zeroext i1 @_ZN4absl9Condition19CastAndCallFunctionIKN12_GLOBAL__N_14BaseEEEbPKS0_(ptr nocapture noundef readonly %c) #3 align 2 {
entry:
  %c.val = load i64, ptr %c, align 8
  %0 = inttoptr i64 %c.val to ptr
  %arg_ = getelementptr inbounds i8, ptr %c, i64 24
  %1 = load ptr, ptr %arg_, align 8
  %call = tail call noundef zeroext i1 %0(ptr noundef %1)
  ret i1 %call
}